; Function Attrs: mustprogress nofree norecurse nosync nounwind willreturn memory(read, inaccessiblemem: none) uwtable
define noundef i32 @_ZNK6icu_7519CollationRuleParser11skipCommentEi(ptr nocapture noundef nonnull readonly align 8 dereferenceable(76) %this, i32 noundef %i) local_unnamed_addr #10 align 2 {
entry:
  %rules = getelementptr inbounds i8, ptr %this, i64 16
  %0 = load ptr, ptr %rules, align 8
  %fUnion.i.i = getelementptr inbounds i8, ptr %0, i64 8
  %1 = load i16, ptr %fUnion.i.i, align 8
  %.fr13 = freeze i16 %1
  %cmp.i.i = icmp slt i16 %.fr13, 0
  %2 = lshr i16 %.fr13, 5
  %shr.i.i = zext nneg i16 %2 to i32
  %fLength.i = getelementptr inbounds i8, ptr %0, i64 12
  %3 = load i32, ptr %fLength.i, align 4
  %cond.i = select i1 %cmp.i.i, i32 %3, i32 %shr.i.i
  %4 = and i16 %.fr13, 2
  %tobool.not.i.i.i = icmp eq i16 %4, 0
  %fBuffer.i.i.i = getelementptr inbounds i8, ptr %0, i64 10
  %fArray.i.i.i = getelementptr inbounds i8, ptr %0, i64 24
  %5 = sext i32 %i to i64
  %smax19 = tail call i32 @llvm.smax.i32(i32 %cond.i, i32 %i)
  %wide.trip.count22 = sext i32 %smax19 to i64
  br i1 %tobool.not.i.i.i, label %while.cond.us, label %while.cond

while.cond.us:                                    ; preds = %entry, %_ZNK6icu_7513UnicodeString6charAtEi.exit.us
  %indvars.iv17 = phi i64 [ %indvars.iv.next18, %_ZNK6icu_7513UnicodeString6charAtEi.exit.us ], [ %5, %entry ]
  %exitcond23.not = icmp eq i64 %indvars.iv17, %wide.trip.count22
  br i1 %exitcond23.not, label %while.end, label %while.body.us

while.body.us:                                    ; preds = %while.cond.us
  %indvars.iv.next18 = add nsw i64 %indvars.iv17, 1
  %6 = trunc i64 %indvars.iv17 to i32
  %cmp.i.i12.us = icmp ugt i32 %cond.i, %6
  br i1 %cmp.i.i12.us, label %if.then.i.i.us, label %_ZNK6icu_7513UnicodeString6charAtEi.exit.us

if.then.i.i.us:                                   ; preds = %while.body.us
  %7 = load ptr, ptr %fArray.i.i.i, align 8
  %arrayidx.i.i.us = getelementptr inbounds i16, ptr %7, i64 %indvars.iv17
  %8 = load i16, ptr %arrayidx.i.i.us, align 2
  br label %_ZNK6icu_7513UnicodeString6charAtEi.exit.us

_ZNK6icu_7513UnicodeString6charAtEi.exit.us:      ; preds = %if.then.i.i.us, %while.body.us
  %retval.0.i.i.us = phi i16 [ %8, %if.then.i.i.us ], [ -1, %while.body.us ]
  switch i16 %retval.0.i.i.us, label %while.cond.us [
    i16 8233, label %while.end.loopexit.split.loop.exit
    i16 8232, label %while.end.loopexit.split.loop.exit
    i16 133, label %while.end.loopexit.split.loop.exit
    i16 13, label %while.end.loopexit.split.loop.exit
    i16 12, label %while.end.loopexit.split.loop.exit
    i16 10, label %while.end.loopexit.split.loop.exit
  ]

while.cond:                                       ; preds = %entry, %_ZNK6icu_7513UnicodeString6charAtEi.exit
  %indvars.iv = phi i64 [ %indvars.iv.next, %_ZNK6icu_7513UnicodeString6charAtEi.exit ], [ %5, %entry ]
  %exitcond.not = icmp eq i64 %indvars.iv, %wide.trip.count22
  br i1 %exitcond.not, label %while.end, label %while.body

while.body:                                       ; preds = %while.cond
  %indvars.iv.next = add nsw i64 %indvars.iv, 1
  %9 = trunc i64 %indvars.iv to i32
  %cmp.i.i12 = icmp ugt i32 %cond.i, %9
  br i1 %cmp.i.i12, label %if.then.i.i, label %_ZNK6icu_7513UnicodeString6charAtEi.exit

if.then.i.i:                                      ; preds = %while.body
  %arrayidx.i.i = getelementptr inbounds i16, ptr %fBuffer.i.i.i, i64 %indvars.iv
  %10 = load i16, ptr %arrayidx.i.i, align 2
  br label %_ZNK6icu_7513UnicodeString6charAtEi.exit

_ZNK6icu_7513UnicodeString6charAtEi.exit:         ; preds = %while.body, %if.then.i.i
  %retval.0.i.i = phi i16 [ %10, %if.then.i.i ], [ -1, %while.body ]
  switch i16 %retval.0.i.i, label %while.cond [
    i16 8233, label %while.end.loopexit24.split.loop.exit
    i16 8232, label %while.end.loopexit24.split.loop.exit
    i16 133, label %while.end.loopexit24.split.loop.exit
    i16 13, label %while.end.loopexit24.split.loop.exit
    i16 12, label %while.end.loopexit24.split.loop.exit
    i16 10, label %while.end.loopexit24.split.loop.exit
  ]

while.end.loopexit.split.loop.exit:               ; preds = %_ZNK6icu_7513UnicodeString6charAtEi.exit.us, %_ZNK6icu_7513UnicodeString6charAtEi.exit.us, %_ZNK6icu_7513UnicodeString6charAtEi.exit.us, %_ZNK6icu_7513UnicodeString6charAtEi.exit.us, %_ZNK6icu_7513UnicodeString6charAtEi.exit.us, %_ZNK6icu_7513UnicodeString6charAtEi.exit.us
  %indvars20.le = trunc i64 %indvars.iv.next18 to i32
  br label %while.end

while.end.loopexit24.split.loop.exit:             ; preds = %_ZNK6icu_7513UnicodeString6charAtEi.exit, %_ZNK6icu_7513UnicodeString6charAtEi.exit, %_ZNK6icu_7513UnicodeString6charAtEi.exit, %_ZNK6icu_7513UnicodeString6charAtEi.exit, %_ZNK6icu_7513UnicodeString6charAtEi.exit, %_ZNK6icu_7513UnicodeString6charAtEi.exit
  %indvars.le = trunc i64 %indvars.iv.next to i32
  br label %while.end

while.end:                                        ; preds = %while.cond, %while.cond.us, %while.end.loopexit24.split.loop.exit, %while.end.loopexit.split.loop.exit
  %.us-phi = phi i32 [ %indvars20.le, %while.end.loopexit.split.loop.exit ], [ %indvars.le, %while.end.loopexit24.split.loop.exit ], [ %smax19, %while.cond.us ], [ %smax19, %while.cond ]
  ret i32 %.us-phi
}